; Function Attrs: mustprogress nofree norecurse nosync nounwind willreturn memory(argmem: read) uwtable
define dso_local noundef range(i32 0, 2) i32 @_Z7hasedgeRK4int3ii(ptr noundef nonnull readonly align 4 captures(none) dereferenceable(12) %0, i32 noundef %1, i32 noundef %2) local_unnamed_addr #7 {
  br label %4

4:                                                ; preds = %3, %.critedge
  %indvars.iv = phi i64 [ 0, %3 ], [ %indvars.iv.next, %.critedge ]
  %indvars.iv.next = add nuw nsw i64 %indvars.iv, 1
  %5 = getelementptr inbounds nuw i32, ptr %0, i64 %indvars.iv
  %6 = load i32, ptr %5, align 4, !tbaa !46
  %7 = icmp eq i32 %6, %1
  br i1 %7, label %8, label %.critedge

8:                                                ; preds = %4
  %.cmp.not = icmp eq i64 %indvars.iv, 2
  %9 = and i64 %indvars.iv.next, 4294967295
  %10 = select i1 %.cmp.not, i64 0, i64 %9
  %11 = getelementptr inbounds nuw i32, ptr %0, i64 %10
  %12 = load i32, ptr %11, align 4, !tbaa !46
  %13 = icmp eq i32 %12, %2
  br i1 %13, label %14, label %.critedge

.critedge:                                        ; preds = %8, %4
  %exitcond.not = icmp eq i64 %indvars.iv.next, 3
  br i1 %exitcond.not, label %14, label %4, !llvm.loop !48

14:                                               ; preds = %8, %.critedge
  %.lcssa = phi i32 [ 1, %8 ], [ 0, %.critedge ]
  ret i32 %.lcssa
}